Certificate:
    Data:
        Version: 3 (0x2)
        Serial Number: 5 (0x5)
    Signature Algorithm: sha256WithRSAEncryption
        Issuer: C=CA, ST=Quebec, L=Montreal, O=Silanis Technology, OU=R&D, CN=TestCert OpenSSL SHA256 Root
        Validity
            Not Before: Feb 14 19:38:37 2014 GMT
            Not After : Feb 12 19:38:37 2024 GMT
        Subject: C=CA, ST=Quebec, O=Silanis Technology, OU=R&D, CN=TestCert OpenSSL SHA2 Intermediate 2
        Subject Public Key Info:
            Public Key Algorithm: rsaEncryption
                Public-Key: (2048 bit)
                Modulus:
                    00:b9:77:44:12:be:63:29:77:d9:ad:a3:64:0c:b2:
                    96:b9:85:87:6a:31:3d:03:12:eb:5a:2e:87:f2:2f:
                    88:d6:8f:f5:b2:88:ab:da:45:eb:34:d2:4e:ea:96:
                    96:da:0e:86:35:e1:b8:c5:42:42:43:21:ad:3c:de:
                    35:1e:76:70:14:9c:84:5d:66:d8:04:3b:fa:c5:8c:
                    c3:3c:b4:42:62:d3:07:5e:ae:0c:eb:e9:76:20:d2:
                    6e:47:2c:72:80:b8:50:a8:38:c9:dd:b9:68:dc:aa:
                    d7:d7:a1:66:63:0f:5a:bc:ae:ac:cc:98:38:30:44:
                    49:85:c4:6f:c9:d7:8b:31:ed:69:b0:41:b4:48:90:
                    ce:29:1c:2a:75:c8:8d:1f:15:bd:2c:ba:8a:ab:7a:
                    3a:43:6b:c1:59:5e:62:17:6c:28:34:24:33:f4:03:
                    fa:72:78:b7:0b:36:69:65:8a:4c:80:b5:df:55:1d:
                    17:d6:30:5a:10:3d:ed:a4:8c:85:47:d9:52:a2:22:
                    b6:6f:6e:7e:d4:c5:e9:2c:64:73:cd:8b:c2:ee:70:
                    c2:71:3d:97:c7:de:cb:da:c3:36:fc:3c:f7:e8:0b:
                    30:a5:08:e5:cc:2c:7d:ef:fe:6e:28:69:56:a7:96:
                    20:68:95:e8:8a:a8:9b:6f:bb:73:f4:18:b1:47:24:
                    eb:71
                Exponent: 65537 (0x10001)
        X509v3 extensions:
            X509v3 CRL Distribution Points: 

                Full Name:
                  URI:http://TEST-CERT-OSSL-CA/crl/root-sha256.crl

            Authority Information Access: 
                OCSP - URI:http://TEST-CERT-OSSL-CA/cgi-bin/root-sha256-ocsp.pl

            X509v3 Subject Key Identifier: 
                6A:76:3A:0F:83:FC:5F:AC:97:15:D4:62:36:7C:BE:94:90:49:9D:EB
            X509v3 Authority Key Identifier: 
                keyid:A9:8D:52:DF:FE:A1:10:81:C6:87:CA:78:20:F3:CB:11:F2:12:DB:F6

            X509v3 Basic Constraints: 
                CA:TRUE
    Signature Algorithm: sha256WithRSAEncryption
         0d:00:96:ca:0a:5a:1c:f8:6b:75:a3:14:49:4d:a1:9f:de:28:
         d4:06:36:43:59:ea:5f:22:df:22:6f:1c:c6:84:1c:d4:b5:99:
         eb:5c:32:48:f4:eb:23:e7:1f:d1:2d:fa:10:ba:89:94:54:ff:
         8a:0d:dc:30:32:58:9d:cf:7c:ae:7d:03:f9:b6:a9:1d:43:13:
         34:ef:c7:73:bc:56:82:a9:43:04:44:f2:17:91:8a:fc:44:80:
         47:fe:e2:89:f4:33:5e:a9:15:97:f1:d5:71:07:39:18:5c:5c:
         9e:c2:2d:9e:fc:f5:9e:99:cc:d5:e3:85:97:f1:d5:78:f4:92:
         49:a4:85:e8:81:1e:49:c7:f1:6c:2d:d0:b9:54:e1:79:16:d6:
         07:e5:17:da:a4:80:30:a6:76:c2:2b:0b:35:6c:e4:1f:c5:61:
         d1:df:be:fe:63:2a:26:4e:9d:d6:1a:4c:c5:60:f8:87:ec:35:
         ff:0f:89:7a:52:83:e8:fe:33:09:13:c0:cb:43:6e:c3:ed:05:
         b8:4d:13:56:5c:1b:39:00:4c:3f:68:2b:2f:0c:14:e7:7f:67:
         41:c7:5b:49:e0:eb:f9:d2:43:7b:2c:d8:c6:36:ce:0e:30:a5:
         8f:18:0b:f3:37:28:eb:46:69:ad:45:d0:d3:32:f2:8a:99:71:
         c8:41:50:4a
-----BEGIN CERTIFICATE-----
MIIEWjCCA0KgAwIBAgIBBTANBgkqhkiG9w0BAQsFADCBgzELMAkGA1UEBhMCQ0Ex
DzANBgNVBAgMBlF1ZWJlYzERMA8GA1UEBwwITW9udHJlYWwxGzAZBgNVBAoMElNp
bGFuaXMgVGVjaG5vbG9neTEMMAoGA1UECwwDUiZEMSUwIwYDVQQDDBxUZXN0Q2Vy
dCBPcGVuU1NMIFNIQTI1NiBSb290MB4XDTE0MDIxNDE5MzgzN1oXDTI0MDIxMjE5
MzgzN1oweDELMAkGA1UEBhMCQ0ExDzANBgNVBAgMBlF1ZWJlYzEbMBkGA1UECgwS
U2lsYW5pcyBUZWNobm9sb2d5MQwwCgYDVQQLDANSJkQxLTArBgNVBAMMJFRlc3RD
ZXJ0IE9wZW5TU0wgU0hBMiBJbnRlcm1lZGlhdGUgMjCCASIwDQYJKoZIhvcNAQEB
BQADggEPADCCAQoCggEBALl3RBK+Yyl32a2jZAyylrmFh2oxPQMS61ouh/IviNaP
9bKIq9pF6zTSTuqWltoOhjXhuMVCQkMhrTzeNR52cBSchF1m2AQ7+sWMwzy0QmLT
B16uDOvpdiDSbkcscoC4UKg4yd25aNyq19ehZmMPWryurMyYODBESYXEb8nXizHt
abBBtEiQzikcKnXIjR8VvSy6iqt6OkNrwVleYhdsKDQkM/QD+nJ4tws2aWWKTIC1
31UdF9YwWhA97aSMhUfZUqIitm9uftTF6Sxkc82Lwu5wwnE9l8fey9rDNvw89+gL
MKUI5cwsfe/+bihpVqeWIGiV6Iqom2+7c/QYsUck63ECAwEAAaOB4jCB3zA9BgNV
HR8ENjA0MDKgMKAuhixodHRwOi8vVEVTVC1DRVJULU9TU0wtQ0EvY3JsL3Jvb3Qt
c2hhMjU2LmNybDBQBggrBgEFBQcBAQREMEIwQAYIKwYBBQUHMAGGNGh0dHA6Ly9U
RVNULUNFUlQtT1NTTC1DQS9jZ2ktYmluL3Jvb3Qtc2hhMjU2LW9jc3AucGwwHQYD
VR0OBBYEFGp2Og+D/F+slxXUYjZ8vpSQSZ3rMB8GA1UdIwQYMBaAFKmNUt/+oRCB
xofKeCDzyxHyEtv2MAwGA1UdEwQFMAMBAf8wDQYJKoZIhvcNAQELBQADggEBAA0A
lsoKWhz4a3WjFElNoZ/eKNQGNkNZ6l8i3yJvHMaEHNS1metcMkj06yPnH9Et+hC6
iZRU/4oN3DAyWJ3PfK59A/m2qR1DEzTvx3O8VoKpQwRE8heRivxEgEf+4on0M16p
FZfx1XEHORhcXJ7CLZ789Z6ZzNXjhZfx1Xj0kkmkheiBHknH8Wwt0LlU4XkW1gfl
F9qkgDCmdsIrCzVs5B/FYdHfvv5jKiZOndYaTMVg+IfsNf8PiXpSg+j+MwkTwMtD
bsPtBbhNE1ZcGzkATD9oKy8MFOd/Z0HHW0ng6/nSQ3ss2MY2zg4wpY8YC/M3KOtG
aa1F0NMy8oqZcchBUEo=
-----END CERTIFICATE-----
