Certificate:
    Data:
        Version: 3 (0x2)
        Serial Number: 19 (0x13)
    Signature Algorithm: sha256WithRSAEncryption
        Issuer: C=CA, ST=Quebec, O=Silanis Technology, OU=R&D, CN=TestCert OpenSSL SHA2 Intermediate 2
        Validity
            Not Before: Jan 30 19:53:17 2015 GMT
            Not After : Jan 27 19:53:17 2025 GMT
        Subject: C=CA, ST=Quebec, O=Silanis Technology, OU=R&D, CN=SysDev
        Subject Public Key Info:
            Public Key Algorithm: rsaEncryption
                Public-Key: (2048 bit)
                Modulus:
                    00:c8:f2:7c:9a:57:6e:06:76:b3:fb:e0:61:ee:f5:
                    2c:c2:56:82:4d:27:77:3a:80:73:6b:10:e4:6f:78:
                    d2:c6:a1:74:86:9f:86:c6:eb:98:5c:81:64:bf:33:
                    7a:f6:fe:b4:f3:d0:59:f4:a2:9b:5f:79:35:5b:56:
                    09:cd:f5:95:57:dd:4a:44:cb:4a:63:c8:0a:bc:6f:
                    be:96:1f:3d:da:ae:fd:e2:e4:c1:e5:5f:36:d1:7c:
                    24:04:0e:6b:65:1e:c2:52:1f:aa:14:af:ca:7e:3d:
                    04:5b:41:9e:84:ef:83:39:06:b6:e2:e3:2b:03:3f:
                    9e:4b:6e:74:5f:57:11:bb:12:e2:bf:d8:8e:59:b9:
                    5f:fd:fb:18:0c:f5:9b:18:be:e8:d0:43:92:2a:e7:
                    a4:f0:18:60:33:e6:3e:7a:09:15:ce:a7:ce:54:52:
                    c0:32:61:91:49:ba:d2:59:1e:15:87:67:04:c0:aa:
                    f0:1b:e0:e2:23:90:92:be:80:95:3f:ea:84:31:02:
                    9a:cd:63:44:63:2a:af:3e:49:e1:f8:94:6d:fa:c6:
                    b0:fc:4c:b5:d7:74:42:0b:36:8c:39:85:55:7e:8f:
                    83:41:4b:24:12:7b:e2:15:5d:6a:6d:1c:51:88:90:
                    e7:52:70:46:9b:4a:a8:e7:8d:87:0b:cb:db:04:0d:
                    cf:15
                Exponent: 65537 (0x10001)
        X509v3 extensions:
            X509v3 Basic Constraints: 
                CA:FALSE
            X509v3 CRL Distribution Points: 

                Full Name:
                  URI:http://TEST-CERT-OSSL-CA/crl/intermediate-sha256.crl

            Authority Information Access: 
                OCSP - URI:http://TEST-CERT-OSSL-CA/cgi-bin/intrm-sha256-ocsp.pl

            Netscape Cert Type: 
                SSL Client, S/MIME, Object Signing
            X509v3 Key Usage: 
                Digital Signature, Non Repudiation, Key Encipherment
            Netscape Comment: 
                OpenSSL Generated Certificate
            X509v3 Subject Key Identifier: 
                BD:55:FE:B4:F3:45:6A:2E:8D:53:D4:BD:FD:D9:53:DA:7E:8A:22:EB
            X509v3 Authority Key Identifier: 
                keyid:6A:76:3A:0F:83:FC:5F:AC:97:15:D4:62:36:7C:BE:94:90:49:9D:EB

    Signature Algorithm: sha256WithRSAEncryption
         b2:0e:3d:d7:1b:c2:e4:60:8b:fa:b8:bf:01:86:c2:f2:2d:3b:
         d7:6f:02:7b:02:93:69:3c:3b:2f:59:7d:b3:98:34:76:b8:75:
         34:bc:c2:94:31:4a:60:1b:ae:19:c3:6f:b6:2e:a1:ef:e9:72:
         93:32:dc:93:0a:15:dd:69:13:74:5c:94:49:73:d3:7d:60:90:
         59:3b:ac:89:cc:dc:93:11:30:a8:70:23:85:74:9c:62:9c:e6:
         8f:a0:ec:e6:9c:77:9e:57:1e:bc:87:8e:20:7c:86:b2:b1:5f:
         7a:53:6c:11:08:39:a7:54:8e:36:fe:51:aa:79:4a:4d:4e:bd:
         f7:33:c7:95:cb:e3:8a:b2:94:08:52:ae:7e:82:54:43:e0:81:
         ba:25:cc:19:3a:8a:e1:d6:07:dc:7c:e1:a3:36:d3:56:8e:fe:
         bf:71:5b:57:0c:13:57:92:69:16:54:7f:04:10:bd:26:71:24:
         01:08:07:06:26:3c:87:04:15:df:9b:f2:1d:2b:4b:13:93:db:
         82:5b:c1:45:75:17:d9:e9:e0:e6:e0:d2:e2:2c:2e:2d:81:8f:
         62:d3:2d:8f:d5:79:12:6d:24:1d:7f:9f:80:f7:e5:9f:ae:b4:
         3f:28:3e:07:95:20:0f:57:1b:e0:52:41:19:a2:26:e7:e1:f0:
         e4:5f:6b:de
-----BEGIN CERTIFICATE-----
MIIEhjCCA26gAwIBAgIBEzANBgkqhkiG9w0BAQsFADB4MQswCQYDVQQGEwJDQTEP
MA0GA1UECAwGUXVlYmVjMRswGQYDVQQKDBJTaWxhbmlzIFRlY2hub2xvZ3kxDDAK
BgNVBAsMA1ImRDEtMCsGA1UEAwwkVGVzdENlcnQgT3BlblNTTCBTSEEyIEludGVy
bWVkaWF0ZSAyMB4XDTE1MDEzMDE5NTMxN1oXDTI1MDEyNzE5NTMxN1owWjELMAkG
A1UEBhMCQ0ExDzANBgNVBAgMBlF1ZWJlYzEbMBkGA1UECgwSU2lsYW5pcyBUZWNo
bm9sb2d5MQwwCgYDVQQLDANSJkQxDzANBgNVBAMMBlN5c0RldjCCASIwDQYJKoZI
hvcNAQEBBQADggEPADCCAQoCggEBAMjyfJpXbgZ2s/vgYe71LMJWgk0ndzqAc2sQ
5G940sahdIafhsbrmFyBZL8zevb+tPPQWfSim195NVtWCc31lVfdSkTLSmPICrxv
vpYfPdqu/eLkweVfNtF8JAQOa2UewlIfqhSvyn49BFtBnoTvgzkGtuLjKwM/nktu
dF9XEbsS4r/Yjlm5X/37GAz1mxi+6NBDkirnpPAYYDPmPnoJFc6nzlRSwDJhkUm6
0lkeFYdnBMCq8Bvg4iOQkr6AlT/qhDECms1jRGMqrz5J4fiUbfrGsPxMtdd0Qgs2
jDmFVX6Pg0FLJBJ74hVdam0cUYiQ51JwRptKqOeNhwvL2wQNzxUCAwEAAaOCATcw
ggEzMAkGA1UdEwQCMAAwRQYDVR0fBD4wPDA6oDigNoY0aHR0cDovL1RFU1QtQ0VS
VC1PU1NMLUNBL2NybC9pbnRlcm1lZGlhdGUtc2hhMjU2LmNybDBRBggrBgEFBQcB
AQRFMEMwQQYIKwYBBQUHMAGGNWh0dHA6Ly9URVNULUNFUlQtT1NTTC1DQS9jZ2kt
YmluL2ludHJtLXNoYTI1Ni1vY3NwLnBsMBEGCWCGSAGG+EIBAQQEAwIEsDALBgNV
HQ8EBAMCBeAwLAYJYIZIAYb4QgENBB8WHU9wZW5TU0wgR2VuZXJhdGVkIENlcnRp
ZmljYXRlMB0GA1UdDgQWBBS9Vf6080VqLo1T1L392VPafooi6zAfBgNVHSMEGDAW
gBRqdjoPg/xfrJcV1GI2fL6UkEmd6zANBgkqhkiG9w0BAQsFAAOCAQEAsg491xvC
5GCL+ri/AYbC8i07128CewKTaTw7L1l9s5g0drh1NLzClDFKYBuuGcNvti6h7+ly
kzLckwoV3WkTdFyUSXPTfWCQWTusiczckxEwqHAjhXScYpzmj6Ds5px3nlcevIeO
IHyGsrFfelNsEQg5p1SONv5RqnlKTU699zPHlcvjirKUCFKufoJUQ+CBuiXMGTqK
4dYH3HzhozbTVo7+v3FbVwwTV5JpFlR/BBC9JnEkAQgHBiY8hwQV35vyHStLE5Pb
glvBRXUX2eng5uDS4iwuLYGPYtMtj9V5Em0kHX+fgPfln660Pyg+B5UgD1cb4FJB
GaIm5+Hw5F9r3g==
-----END CERTIFICATE-----
